target datalayout = "e-m:e-p270:32:32-p271:32:32-p272:64:64-i64:64-i128:128-f80:128-n8:16:32:64-S128"
target triple = "x86_64-unknown-linux-gnu"

%"class.openvdb::v11_0::math::Mat.9" = type { [9 x double] }
%"class.openvdb::v11_0::math::Mat4" = type { %"class.openvdb::v11_0::math::Mat" }
%"class.openvdb::v11_0::math::Mat" = type { [16 x double] }

@_ZZN7openvdb5v11_04math4Mat4IdE8identityEvE9sIdentity = linkonce_odr global %"class.openvdb::v11_0::math::Mat4" zeroinitializer, comdat, align 8
@_ZGVZN7openvdb5v11_04math4Mat4IdE8identityEvE9sIdentity = linkonce_odr global i64 0, comdat, align 8

; Function Attrs: mustprogress nounwind uwtable
define linkonce_odr noundef ptr @_ZNK7openvdb5v11_04math3MatILj3EdEixEi(ptr noundef nonnull align 8 dereferenceable(72) %this, i32 noundef %i) #5 comdat align 2 {
entry:
  %this.addr = alloca ptr, align 8
  %i.addr = alloca i32, align 4
  store ptr %this, ptr %this.addr, align 8
  store i32 %i, ptr %i.addr, align 4
  %this1 = load ptr, ptr %this.addr, align 8
  %mm = getelementptr inbounds %"class.openvdb::v11_0::math::Mat.9", ptr %this1, i32 0, i32 0
  %0 = load i32, ptr %i.addr, align 4
  %mul = mul i32 %0, 3
  %idxprom = zext i32 %mul to i64
  %arrayidx = getelementptr inbounds [9 x double], ptr %mm, i64 0, i64 %idxprom
  ret ptr %arrayidx
}

; Function Attrs: mustprogress nounwind uwtable
define linkonce_odr void @_ZN7openvdb5v11_04math4Mat4IdEC2IiEET_S5_S5_S5_S5_S5_S5_S5_S5_S5_S5_S5_S5_S5_S5_S5_(ptr noundef nonnull align 8 dereferenceable(128) %this, i32 noundef %a, i32 noundef %b, i32 noundef %c, i32 noundef %d, i32 noundef %e, i32 noundef %f, i32 noundef %g, i32 noundef %h, i32 noundef %i, i32 noundef %j, i32 noundef %k, i32 noundef %l, i32 noundef %m, i32 noundef %n, i32 noundef %o, i32 noundef %p) unnamed_addr #5 comdat align 2 {
entry:
  %this.addr = alloca ptr, align 8
  %a.addr = alloca i32, align 4
  %b.addr = alloca i32, align 4
  %c.addr = alloca i32, align 4
  %d.addr = alloca i32, align 4
  %e.addr = alloca i32, align 4
  %f.addr = alloca i32, align 4
  %g.addr = alloca i32, align 4
  %h.addr = alloca i32, align 4
  %i.addr = alloca i32, align 4
  %j.addr = alloca i32, align 4
  %k.addr = alloca i32, align 4
  %l.addr = alloca i32, align 4
  %m.addr = alloca i32, align 4
  %n.addr = alloca i32, align 4
  %o.addr = alloca i32, align 4
  %p.addr = alloca i32, align 4
  store ptr %this, ptr %this.addr, align 8
  store i32 %a, ptr %a.addr, align 4
  store i32 %b, ptr %b.addr, align 4
  store i32 %c, ptr %c.addr, align 4
  store i32 %d, ptr %d.addr, align 4
  store i32 %e, ptr %e.addr, align 4
  store i32 %f, ptr %f.addr, align 4
  store i32 %g, ptr %g.addr, align 4
  store i32 %h, ptr %h.addr, align 4
  store i32 %i, ptr %i.addr, align 4
  store i32 %j, ptr %j.addr, align 4
  store i32 %k, ptr %k.addr, align 4
  store i32 %l, ptr %l.addr, align 4
  store i32 %m, ptr %m.addr, align 4
  store i32 %n, ptr %n.addr, align 4
  store i32 %o, ptr %o.addr, align 4
  store i32 %p, ptr %p.addr, align 4
  %this1 = load ptr, ptr %this.addr, align 8
  %0 = load i32, ptr %a.addr, align 4
  %conv = sitofp i32 %0 to double
  %mm = getelementptr inbounds %"class.openvdb::v11_0::math::Mat", ptr %this1, i32 0, i32 0
  %arrayidx = getelementptr inbounds [16 x double], ptr %mm, i64 0, i64 0
  store double %conv, ptr %arrayidx, align 8
  %1 = load i32, ptr %b.addr, align 4
  %conv2 = sitofp i32 %1 to double
  %mm3 = getelementptr inbounds %"class.openvdb::v11_0::math::Mat", ptr %this1, i32 0, i32 0
  %arrayidx4 = getelementptr inbounds [16 x double], ptr %mm3, i64 0, i64 1
  store double %conv2, ptr %arrayidx4, align 8
  %2 = load i32, ptr %c.addr, align 4
  %conv5 = sitofp i32 %2 to double
  %mm6 = getelementptr inbounds %"class.openvdb::v11_0::math::Mat", ptr %this1, i32 0, i32 0
  %arrayidx7 = getelementptr inbounds [16 x double], ptr %mm6, i64 0, i64 2
  store double %conv5, ptr %arrayidx7, align 8
  %3 = load i32, ptr %d.addr, align 4
  %conv8 = sitofp i32 %3 to double
  %mm9 = getelementptr inbounds %"class.openvdb::v11_0::math::Mat", ptr %this1, i32 0, i32 0
  %arrayidx10 = getelementptr inbounds [16 x double], ptr %mm9, i64 0, i64 3
  store double %conv8, ptr %arrayidx10, align 8
  %4 = load i32, ptr %e.addr, align 4
  %conv11 = sitofp i32 %4 to double
  %mm12 = getelementptr inbounds %"class.openvdb::v11_0::math::Mat", ptr %this1, i32 0, i32 0
  %arrayidx13 = getelementptr inbounds [16 x double], ptr %mm12, i64 0, i64 4
  store double %conv11, ptr %arrayidx13, align 8
  %5 = load i32, ptr %f.addr, align 4
  %conv14 = sitofp i32 %5 to double
  %mm15 = getelementptr inbounds %"class.openvdb::v11_0::math::Mat", ptr %this1, i32 0, i32 0
  %arrayidx16 = getelementptr inbounds [16 x double], ptr %mm15, i64 0, i64 5
  store double %conv14, ptr %arrayidx16, align 8
  %6 = load i32, ptr %g.addr, align 4
  %conv17 = sitofp i32 %6 to double
  %mm18 = getelementptr inbounds %"class.openvdb::v11_0::math::Mat", ptr %this1, i32 0, i32 0
  %arrayidx19 = getelementptr inbounds [16 x double], ptr %mm18, i64 0, i64 6
  store double %conv17, ptr %arrayidx19, align 8
  %7 = load i32, ptr %h.addr, align 4
  %conv20 = sitofp i32 %7 to double
  %mm21 = getelementptr inbounds %"class.openvdb::v11_0::math::Mat", ptr %this1, i32 0, i32 0
  %arrayidx22 = getelementptr inbounds [16 x double], ptr %mm21, i64 0, i64 7
  store double %conv20, ptr %arrayidx22, align 8
  %8 = load i32, ptr %i.addr, align 4
  %conv23 = sitofp i32 %8 to double
  %mm24 = getelementptr inbounds %"class.openvdb::v11_0::math::Mat", ptr %this1, i32 0, i32 0
  %arrayidx25 = getelementptr inbounds [16 x double], ptr %mm24, i64 0, i64 8
  store double %conv23, ptr %arrayidx25, align 8
  %9 = load i32, ptr %j.addr, align 4
  %conv26 = sitofp i32 %9 to double
  %mm27 = getelementptr inbounds %"class.openvdb::v11_0::math::Mat", ptr %this1, i32 0, i32 0
  %arrayidx28 = getelementptr inbounds [16 x double], ptr %mm27, i64 0, i64 9
  store double %conv26, ptr %arrayidx28, align 8
  %10 = load i32, ptr %k.addr, align 4
  %conv29 = sitofp i32 %10 to double
  %mm30 = getelementptr inbounds %"class.openvdb::v11_0::math::Mat", ptr %this1, i32 0, i32 0
  %arrayidx31 = getelementptr inbounds [16 x double], ptr %mm30, i64 0, i64 10
  store double %conv29, ptr %arrayidx31, align 8
  %11 = load i32, ptr %l.addr, align 4
  %conv32 = sitofp i32 %11 to double
  %mm33 = getelementptr inbounds %"class.openvdb::v11_0::math::Mat", ptr %this1, i32 0, i32 0
  %arrayidx34 = getelementptr inbounds [16 x double], ptr %mm33, i64 0, i64 11
  store double %conv32, ptr %arrayidx34, align 8
  %12 = load i32, ptr %m.addr, align 4
  %conv35 = sitofp i32 %12 to double
  %mm36 = getelementptr inbounds %"class.openvdb::v11_0::math::Mat", ptr %this1, i32 0, i32 0
  %arrayidx37 = getelementptr inbounds [16 x double], ptr %mm36, i64 0, i64 12
  store double %conv35, ptr %arrayidx37, align 8
  %13 = load i32, ptr %n.addr, align 4
  %conv38 = sitofp i32 %13 to double
  %mm39 = getelementptr inbounds %"class.openvdb::v11_0::math::Mat", ptr %this1, i32 0, i32 0
  %arrayidx40 = getelementptr inbounds [16 x double], ptr %mm39, i64 0, i64 13
  store double %conv38, ptr %arrayidx40, align 8
  %14 = load i32, ptr %o.addr, align 4
  %conv41 = sitofp i32 %14 to double
  %mm42 = getelementptr inbounds %"class.openvdb::v11_0::math::Mat", ptr %this1, i32 0, i32 0
  %arrayidx43 = getelementptr inbounds [16 x double], ptr %mm42, i64 0, i64 14
  store double %conv41, ptr %arrayidx43, align 8
  %15 = load i32, ptr %p.addr, align 4
  %conv44 = sitofp i32 %15 to double
  %mm45 = getelementptr inbounds %"class.openvdb::v11_0::math::Mat", ptr %this1, i32 0, i32 0
  %arrayidx46 = getelementptr inbounds [16 x double], ptr %mm45, i64 0, i64 15
  store double %conv44, ptr %arrayidx46, align 8
  ret void
}

; Function Attrs: mustprogress uwtable
define linkonce_odr void @_ZN7openvdb5v11_04math4Mat4IdE7setMat3ERKNS1_4Mat3IdEE(ptr noundef nonnull align 8 dereferenceable(128) %this, ptr noundef nonnull align 8 dereferenceable(72) %m) #4 comdat align 2 {
entry:
  %this.addr = alloca ptr, align 8
  %m.addr = alloca ptr, align 8
  %i = alloca i32, align 4
  %j = alloca i32, align 4
  store ptr %this, ptr %this.addr, align 8
  store ptr %m, ptr %m.addr, align 8
  %this1 = load ptr, ptr %this.addr, align 8
  store i32 0, ptr %i, align 4
  br label %for.cond

for.cond:                                         ; preds = %for.inc7, %entry
  %0 = load i32, ptr %i, align 4
  %cmp = icmp slt i32 %0, 3
  br i1 %cmp, label %for.body, label %for.end9

for.body:                                         ; preds = %for.cond
  store i32 0, ptr %j, align 4
  br label %for.cond2

for.cond2:                                        ; preds = %for.inc, %for.body
  %1 = load i32, ptr %j, align 4
  %cmp3 = icmp slt i32 %1, 3
  br i1 %cmp3, label %for.body4, label %for.end

for.body4:                                        ; preds = %for.cond2
  %2 = load ptr, ptr %m.addr, align 8
  %3 = load i32, ptr %i, align 4
  %call = call noundef ptr @_ZNK7openvdb5v11_04math3MatILj3EdEixEi(ptr noundef nonnull align 8 dereferenceable(72) %2, i32 noundef %3)
  %4 = load i32, ptr %j, align 4
  %idxprom = sext i32 %4 to i64
  %arrayidx = getelementptr inbounds double, ptr %call, i64 %idxprom
  %5 = load double, ptr %arrayidx, align 8
  %mm = getelementptr inbounds %"class.openvdb::v11_0::math::Mat", ptr %this1, i32 0, i32 0
  %6 = load i32, ptr %i, align 4
  %mul = mul nsw i32 %6, 4
  %7 = load i32, ptr %j, align 4
  %add = add nsw i32 %mul, %7
  %idxprom5 = sext i32 %add to i64
  %arrayidx6 = getelementptr inbounds [16 x double], ptr %mm, i64 0, i64 %idxprom5
  store double %5, ptr %arrayidx6, align 8
  br label %for.inc

for.inc:                                          ; preds = %for.body4
  %8 = load i32, ptr %j, align 4
  %inc = add nsw i32 %8, 1
  store i32 %inc, ptr %j, align 4
  br label %for.cond2, !llvm.loop !5

for.end:                                          ; preds = %for.cond2
  br label %for.inc7

for.inc7:                                         ; preds = %for.end
  %9 = load i32, ptr %i, align 4
  %inc8 = add nsw i32 %9, 1
  store i32 %inc8, ptr %i, align 4
  br label %for.cond, !llvm.loop !7

for.end9:                                         ; preds = %for.cond
  ret void
}

; Function Attrs: mustprogress uwtable
define linkonce_odr noundef nonnull align 8 dereferenceable(128) ptr @_ZN7openvdb5v11_04math4Mat4IdE8identityEv() #4 comdat align 2 personality ptr @__gxx_personality_v0 {
entry:
  %exn.slot = alloca ptr, align 8
  %ehselector.slot = alloca i32, align 4
  %0 = load atomic i8, ptr @_ZGVZN7openvdb5v11_04math4Mat4IdE8identityEvE9sIdentity acquire, align 8
  %guard.uninitialized = icmp eq i8 %0, 0
  br i1 %guard.uninitialized, label %init.check, label %init.end, !prof !4

init.check:                                       ; preds = %entry
  %1 = call i32 @__cxa_guard_acquire(ptr @_ZGVZN7openvdb5v11_04math4Mat4IdE8identityEvE9sIdentity) #3
  %tobool = icmp ne i32 %1, 0
  br i1 %tobool, label %init, label %init.end

init:                                             ; preds = %init.check
  invoke void @_ZN7openvdb5v11_04math4Mat4IdEC2IiEET_S5_S5_S5_S5_S5_S5_S5_S5_S5_S5_S5_S5_S5_S5_S5_(ptr noundef nonnull align 8 dereferenceable(128) @_ZZN7openvdb5v11_04math4Mat4IdE8identityEvE9sIdentity, i32 noundef 1, i32 noundef 0, i32 noundef 0, i32 noundef 0, i32 noundef 0, i32 noundef 1, i32 noundef 0, i32 noundef 0, i32 noundef 0, i32 noundef 0, i32 noundef 1, i32 noundef 0, i32 noundef 0, i32 noundef 0, i32 noundef 0, i32 noundef 1)
          to label %invoke.cont unwind label %lpad

invoke.cont:                                      ; preds = %init
  call void @__cxa_guard_release(ptr @_ZGVZN7openvdb5v11_04math4Mat4IdE8identityEvE9sIdentity) #3
  br label %init.end

init.end:                                         ; preds = %invoke.cont, %init.check, %entry
  ret ptr @_ZZN7openvdb5v11_04math4Mat4IdE8identityEvE9sIdentity

lpad:                                             ; preds = %init
  %2 = landingpad { ptr, i32 }
          cleanup
  %3 = extractvalue { ptr, i32 } %2, 0
  store ptr %3, ptr %exn.slot, align 8
  %4 = extractvalue { ptr, i32 } %2, 1
  store i32 %4, ptr %ehselector.slot, align 4
  call void @__cxa_guard_abort(ptr @_ZGVZN7openvdb5v11_04math4Mat4IdE8identityEvE9sIdentity) #3
  br label %eh.resume

eh.resume:                                        ; preds = %lpad
  %exn = load ptr, ptr %exn.slot, align 8
  %sel = load i32, ptr %ehselector.slot, align 4
  %lpad.val = insertvalue { ptr, i32 } poison, ptr %exn, 0
  %lpad.val1 = insertvalue { ptr, i32 } %lpad.val, i32 %sel, 1
  resume { ptr, i32 } %lpad.val1
}

; Function Attrs: mustprogress uwtable
define void @_ZN7openvdb5v11_04math9Transform7preMultERKNS1_4Mat3IdEE(ptr noundef nonnull align 8 dereferenceable(16) %this, ptr noundef nonnull align 8 dereferenceable(72) %m) #4 align 2 {
entry:
  %this.addr = alloca ptr, align 8
  %m.addr = alloca ptr, align 8
  %mat4 = alloca %"class.openvdb::v11_0::math::Mat4", align 8
  store ptr %this, ptr %this.addr, align 8
  store ptr %m, ptr %m.addr, align 8
  %this1 = load ptr, ptr %this.addr, align 8
  %call = call noundef nonnull align 8 dereferenceable(128) ptr @_ZN7openvdb5v11_04math4Mat4IdE8identityEv()
  call void @llvm.memcpy.p0.p0.i64(ptr align 8 %mat4, ptr align 8 %call, i64 128, i1 false)
  %0 = load ptr, ptr %m.addr, align 8
  call void @_ZN7openvdb5v11_04math4Mat4IdE7setMat3ERKNS1_4Mat3IdEE(ptr noundef nonnull align 8 dereferenceable(128) %mat4, ptr noundef nonnull align 8 dereferenceable(72) %0)
  call void @_ZN7openvdb5v11_04math9Transform7preMultERKNS1_4Mat4IdEE(ptr noundef nonnull align 8 dereferenceable(16) %this1, ptr noundef nonnull align 8 dereferenceable(128) %mat4)
  ret void
}